target datalayout = "e-m:e-p270:32:32-p271:32:32-p272:64:64-i64:64-i128:128-f80:128-n8:16:32:64-S128"
target triple = "x86_64-pc-linux-gnu"

%struct.pmix_value = type { i16, %union.anon }
%union.anon = type { %struct.pmix_envar_t }
%struct.pmix_envar_t = type { ptr, ptr, i8 }
%struct.pmix_info = type { [512 x i8], i32, %struct.pmix_value }
%struct.pmix_app = type { ptr, ptr, ptr, ptr, i32, ptr, i64 }

; Function Attrs: inlinehint nounwind uwtable
define internal void @pmix_strncpy(ptr noundef %0, ptr noundef %1, i64 noundef %2) #3 {
  %4 = alloca ptr, align 8
  %5 = alloca ptr, align 8
  %6 = alloca i64, align 8
  %7 = alloca i64, align 8
  store ptr %0, ptr %4, align 8, !tbaa !33
  store ptr %1, ptr %5, align 8, !tbaa !33
  store i64 %2, ptr %6, align 8, !tbaa !25
  call void @llvm.lifetime.start.p0(i64 8, ptr %7) #11
  store i64 0, ptr %7, align 8, !tbaa !25
  br label %8

8:                                                ; preds = %22, %3
  %9 = load i64, ptr %7, align 8, !tbaa !25
  %10 = load i64, ptr %6, align 8, !tbaa !25
  %11 = icmp ult i64 %9, %10
  br i1 %11, label %12, label %29

12:                                               ; preds = %8
  %13 = load ptr, ptr %5, align 8, !tbaa !33
  %14 = load i8, ptr %13, align 1, !tbaa !59
  %15 = load ptr, ptr %4, align 8, !tbaa !33
  store i8 %14, ptr %15, align 1, !tbaa !59
  %16 = load ptr, ptr %5, align 8, !tbaa !33
  %17 = load i8, ptr %16, align 1, !tbaa !59
  %18 = sext i8 %17 to i32
  %19 = icmp eq i32 0, %18
  br i1 %19, label %20, label %21

20:                                               ; preds = %12
  br label %29

21:                                               ; preds = %12
  br label %22

22:                                               ; preds = %21
  %23 = load i64, ptr %7, align 8, !tbaa !25
  %24 = add i64 %23, 1
  store i64 %24, ptr %7, align 8, !tbaa !25
  %25 = load ptr, ptr %5, align 8, !tbaa !33
  %26 = getelementptr inbounds nuw i8, ptr %25, i32 1
  store ptr %26, ptr %5, align 8, !tbaa !33
  %27 = load ptr, ptr %4, align 8, !tbaa !33
  %28 = getelementptr inbounds nuw i8, ptr %27, i32 1
  store ptr %28, ptr %4, align 8, !tbaa !33
  br label %8, !llvm.loop !60

29:                                               ; preds = %20, %8
  %30 = load ptr, ptr %4, align 8, !tbaa !33
  store i8 0, ptr %30, align 1, !tbaa !59
  call void @llvm.lifetime.end.p0(i64 8, ptr %7) #11
  ret void
}

; Function Attrs: nounwind uwtable
define i32 @pmix_bfrops_base_copy_app(ptr noundef %0, ptr noundef %1, i16 noundef zeroext %2) #0 {
  %4 = alloca ptr, align 8
  %5 = alloca ptr, align 8
  %6 = alloca i16, align 2
  %7 = alloca i64, align 8
  store ptr %0, ptr %4, align 8, !tbaa !78
  store ptr %1, ptr %5, align 8, !tbaa !80
  store i16 %2, ptr %6, align 2, !tbaa !9
  call void @llvm.lifetime.start.p0(i64 8, ptr %7) #11
  %8 = call noalias ptr @malloc(i64 noundef 56) #12
  %9 = load ptr, ptr %4, align 8, !tbaa !78
  store ptr %8, ptr %9, align 8, !tbaa !80
  %10 = load ptr, ptr %5, align 8, !tbaa !80
  %11 = getelementptr inbounds nuw %struct.pmix_app, ptr %10, i32 0, i32 0
  %12 = load ptr, ptr %11, align 8, !tbaa !82
  %13 = call noalias ptr @strdup(ptr noundef %12) #11
  %14 = load ptr, ptr %4, align 8, !tbaa !78
  %15 = load ptr, ptr %14, align 8, !tbaa !80
  %16 = getelementptr inbounds nuw %struct.pmix_app, ptr %15, i32 0, i32 0
  store ptr %13, ptr %16, align 8, !tbaa !82
  %17 = load ptr, ptr %5, align 8, !tbaa !80
  %18 = getelementptr inbounds nuw %struct.pmix_app, ptr %17, i32 0, i32 1
  %19 = load ptr, ptr %18, align 8, !tbaa !84
  %20 = call ptr @PMIx_Argv_copy(ptr noundef %19)
  %21 = load ptr, ptr %4, align 8, !tbaa !78
  %22 = load ptr, ptr %21, align 8, !tbaa !80
  %23 = getelementptr inbounds nuw %struct.pmix_app, ptr %22, i32 0, i32 1
  store ptr %20, ptr %23, align 8, !tbaa !84
  %24 = load ptr, ptr %5, align 8, !tbaa !80
  %25 = getelementptr inbounds nuw %struct.pmix_app, ptr %24, i32 0, i32 2
  %26 = load ptr, ptr %25, align 8, !tbaa !85
  %27 = call ptr @PMIx_Argv_copy(ptr noundef %26)
  %28 = load ptr, ptr %4, align 8, !tbaa !78
  %29 = load ptr, ptr %28, align 8, !tbaa !80
  %30 = getelementptr inbounds nuw %struct.pmix_app, ptr %29, i32 0, i32 2
  store ptr %27, ptr %30, align 8, !tbaa !85
  %31 = load ptr, ptr %5, align 8, !tbaa !80
  %32 = getelementptr inbounds nuw %struct.pmix_app, ptr %31, i32 0, i32 3
  %33 = load ptr, ptr %32, align 8, !tbaa !86
  %34 = icmp ne ptr null, %33
  br i1 %34, label %35, label %43

35:                                               ; preds = %3
  %36 = load ptr, ptr %5, align 8, !tbaa !80
  %37 = getelementptr inbounds nuw %struct.pmix_app, ptr %36, i32 0, i32 3
  %38 = load ptr, ptr %37, align 8, !tbaa !86
  %39 = call noalias ptr @strdup(ptr noundef %38) #11
  %40 = load ptr, ptr %4, align 8, !tbaa !78
  %41 = load ptr, ptr %40, align 8, !tbaa !80
  %42 = getelementptr inbounds nuw %struct.pmix_app, ptr %41, i32 0, i32 3
  store ptr %39, ptr %42, align 8, !tbaa !86
  br label %43

43:                                               ; preds = %35, %3
  %44 = load ptr, ptr %5, align 8, !tbaa !80
  %45 = getelementptr inbounds nuw %struct.pmix_app, ptr %44, i32 0, i32 4
  %46 = load i32, ptr %45, align 8, !tbaa !87
  %47 = load ptr, ptr %4, align 8, !tbaa !78
  %48 = load ptr, ptr %47, align 8, !tbaa !80
  %49 = getelementptr inbounds nuw %struct.pmix_app, ptr %48, i32 0, i32 4
  store i32 %46, ptr %49, align 8, !tbaa !87
  %50 = load ptr, ptr %5, align 8, !tbaa !80
  %51 = getelementptr inbounds nuw %struct.pmix_app, ptr %50, i32 0, i32 6
  %52 = load i64, ptr %51, align 8, !tbaa !88
  %53 = load ptr, ptr %4, align 8, !tbaa !78
  %54 = load ptr, ptr %53, align 8, !tbaa !80
  %55 = getelementptr inbounds nuw %struct.pmix_app, ptr %54, i32 0, i32 6
  store i64 %52, ptr %55, align 8, !tbaa !88
  %56 = load ptr, ptr %5, align 8, !tbaa !80
  %57 = getelementptr inbounds nuw %struct.pmix_app, ptr %56, i32 0, i32 6
  %58 = load i64, ptr %57, align 8, !tbaa !88
  %59 = mul i64 %58, 552
  %60 = call noalias ptr @malloc(i64 noundef %59) #12
  %61 = load ptr, ptr %4, align 8, !tbaa !78
  %62 = load ptr, ptr %61, align 8, !tbaa !80
  %63 = getelementptr inbounds nuw %struct.pmix_app, ptr %62, i32 0, i32 5
  store ptr %60, ptr %63, align 8, !tbaa !89
  store i64 0, ptr %7, align 8, !tbaa !25
  br label %64

64:                                               ; preds = %100, %43
  %65 = load i64, ptr %7, align 8, !tbaa !25
  %66 = load ptr, ptr %5, align 8, !tbaa !80
  %67 = getelementptr inbounds nuw %struct.pmix_app, ptr %66, i32 0, i32 6
  %68 = load i64, ptr %67, align 8, !tbaa !88
  %69 = icmp ult i64 %65, %68
  br i1 %69, label %70, label %103

70:                                               ; preds = %64
  %71 = load ptr, ptr %4, align 8, !tbaa !78
  %72 = load ptr, ptr %71, align 8, !tbaa !80
  %73 = getelementptr inbounds nuw %struct.pmix_app, ptr %72, i32 0, i32 5
  %74 = load ptr, ptr %73, align 8, !tbaa !89
  %75 = load i64, ptr %7, align 8, !tbaa !25
  %76 = getelementptr inbounds nuw %struct.pmix_info, ptr %74, i64 %75
  %77 = getelementptr inbounds nuw %struct.pmix_info, ptr %76, i32 0, i32 0
  %78 = getelementptr inbounds [512 x i8], ptr %77, i64 0, i64 0
  %79 = load ptr, ptr %5, align 8, !tbaa !80
  %80 = getelementptr inbounds nuw %struct.pmix_app, ptr %79, i32 0, i32 5
  %81 = load ptr, ptr %80, align 8, !tbaa !89
  %82 = load i64, ptr %7, align 8, !tbaa !25
  %83 = getelementptr inbounds nuw %struct.pmix_info, ptr %81, i64 %82
  %84 = getelementptr inbounds nuw %struct.pmix_info, ptr %83, i32 0, i32 0
  %85 = getelementptr inbounds [512 x i8], ptr %84, i64 0, i64 0
  call void @pmix_strncpy(ptr noundef %78, ptr noundef %85, i64 noundef 511)
  %86 = load ptr, ptr %4, align 8, !tbaa !78
  %87 = load ptr, ptr %86, align 8, !tbaa !80
  %88 = getelementptr inbounds nuw %struct.pmix_app, ptr %87, i32 0, i32 5
  %89 = load ptr, ptr %88, align 8, !tbaa !89
  %90 = load i64, ptr %7, align 8, !tbaa !25
  %91 = getelementptr inbounds nuw %struct.pmix_info, ptr %89, i64 %90
  %92 = getelementptr inbounds nuw %struct.pmix_info, ptr %91, i32 0, i32 2
  %93 = load ptr, ptr %5, align 8, !tbaa !80
  %94 = getelementptr inbounds nuw %struct.pmix_app, ptr %93, i32 0, i32 5
  %95 = load ptr, ptr %94, align 8, !tbaa !89
  %96 = load i64, ptr %7, align 8, !tbaa !25
  %97 = getelementptr inbounds nuw %struct.pmix_info, ptr %95, i64 %96
  %98 = getelementptr inbounds nuw %struct.pmix_info, ptr %97, i32 0, i32 2
  %99 = call i32 @PMIx_Value_xfer(ptr noundef %92, ptr noundef %98)
  br label %100

100:                                              ; preds = %70
  %101 = load i64, ptr %7, align 8, !tbaa !25
  %102 = add i64 %101, 1
  store i64 %102, ptr %7, align 8, !tbaa !25
  br label %64, !llvm.loop !90

103:                                              ; preds = %64
  call void @llvm.lifetime.end.p0(i64 8, ptr %7) #11
  ret i32 0
}