; Function Attrs: nounwind uwtable
define noundef i32 @pmix_bfrops_base_copy_app(ptr noundef captures(none) initializes((0, 8)) %0, ptr noundef readonly captures(none) %1, i16 noundef zeroext %2) local_unnamed_addr #0 {
  %4 = tail call noalias dereferenceable_or_null(56) ptr @malloc(i64 noundef 56) #25
  store ptr %4, ptr %0, align 8, !tbaa !60
  %5 = load ptr, ptr %1, align 8, !tbaa !62
  %6 = tail call noalias ptr @strdup(ptr noundef %5) #23
  store ptr %6, ptr %4, align 8, !tbaa !62
  %7 = getelementptr inbounds nuw i8, ptr %1, i64 8
  %8 = load ptr, ptr %7, align 8, !tbaa !65
  %9 = tail call ptr @PMIx_Argv_copy(ptr noundef %8) #23
  %10 = load ptr, ptr %0, align 8, !tbaa !60
  %11 = getelementptr inbounds nuw i8, ptr %10, i64 8
  store ptr %9, ptr %11, align 8, !tbaa !65
  %12 = getelementptr inbounds nuw i8, ptr %1, i64 16
  %13 = load ptr, ptr %12, align 8, !tbaa !66
  %14 = tail call ptr @PMIx_Argv_copy(ptr noundef %13) #23
  %15 = load ptr, ptr %0, align 8, !tbaa !60
  %16 = getelementptr inbounds nuw i8, ptr %15, i64 16
  store ptr %14, ptr %16, align 8, !tbaa !66
  %17 = getelementptr inbounds nuw i8, ptr %1, i64 24
  %18 = load ptr, ptr %17, align 8, !tbaa !67
  %.not = icmp eq ptr %18, null
  br i1 %.not, label %22, label %19

19:                                               ; preds = %3
  %20 = tail call noalias ptr @strdup(ptr noundef nonnull %18) #23
  %21 = getelementptr inbounds nuw i8, ptr %15, i64 24
  store ptr %20, ptr %21, align 8, !tbaa !67
  br label %22

22:                                               ; preds = %19, %3
  %23 = getelementptr inbounds nuw i8, ptr %1, i64 32
  %24 = load i32, ptr %23, align 8, !tbaa !68
  %25 = getelementptr inbounds nuw i8, ptr %15, i64 32
  store i32 %24, ptr %25, align 8, !tbaa !68
  %26 = getelementptr inbounds nuw i8, ptr %1, i64 48
  %27 = load i64, ptr %26, align 8, !tbaa !69
  %28 = getelementptr inbounds nuw i8, ptr %15, i64 48
  store i64 %27, ptr %28, align 8, !tbaa !69
  %29 = mul i64 %27, 552
  %30 = tail call noalias ptr @malloc(i64 noundef %29) #25
  %31 = getelementptr inbounds nuw i8, ptr %15, i64 40
  store ptr %30, ptr %31, align 8, !tbaa !70
  %.not28 = icmp eq i64 %27, 0
  br i1 %.not28, label %._crit_edge, label %.lr.ph

.lr.ph:                                           ; preds = %22
  %32 = getelementptr inbounds nuw i8, ptr %1, i64 40
  br label %33

33:                                               ; preds = %.lr.ph, %pmix_strncpy.exit
  %.027 = phi i64 [ 0, %.lr.ph ], [ %54, %pmix_strncpy.exit ]
  %34 = load ptr, ptr %0, align 8, !tbaa !60
  %35 = getelementptr inbounds nuw i8, ptr %34, i64 40
  %36 = load ptr, ptr %35, align 8, !tbaa !70
  %37 = getelementptr inbounds nuw %struct.pmix_info, ptr %36, i64 %.027
  %38 = load ptr, ptr %32, align 8, !tbaa !70
  %39 = getelementptr inbounds nuw %struct.pmix_info, ptr %38, i64 %.027
  br label %40

40:                                               ; preds = %43, %33
  %.012.i = phi i64 [ 0, %33 ], [ %44, %43 ]
  %.0811.i = phi ptr [ %37, %33 ], [ %46, %43 ]
  %.0910.i = phi ptr [ %39, %33 ], [ %45, %43 ]
  %41 = load i8, ptr %.0910.i, align 1, !tbaa !48
  store i8 %41, ptr %.0811.i, align 1, !tbaa !48
  %42 = icmp eq i8 %41, 0
  br i1 %42, label %pmix_strncpy.exit, label %43

43:                                               ; preds = %40
  %44 = add nuw nsw i64 %.012.i, 1
  %45 = getelementptr inbounds nuw i8, ptr %.0910.i, i64 1
  %46 = getelementptr inbounds nuw i8, ptr %.0811.i, i64 1
  %exitcond.not.i = icmp eq i64 %44, 511
  br i1 %exitcond.not.i, label %pmix_strncpy.exit, label %40, !llvm.loop !49

pmix_strncpy.exit:                                ; preds = %40, %43
  %.08.lcssa.i = phi ptr [ %.0811.i, %40 ], [ %46, %43 ]
  store i8 0, ptr %.08.lcssa.i, align 1, !tbaa !48
  %47 = load ptr, ptr %0, align 8, !tbaa !60
  %48 = getelementptr inbounds nuw i8, ptr %47, i64 40
  %49 = load ptr, ptr %48, align 8, !tbaa !70
  %50 = getelementptr inbounds nuw %struct.pmix_info, ptr %49, i64 %.027, i32 2
  %51 = load ptr, ptr %32, align 8, !tbaa !70
  %52 = getelementptr inbounds nuw %struct.pmix_info, ptr %51, i64 %.027, i32 2
  %53 = tail call i32 @PMIx_Value_xfer(ptr noundef nonnull %50, ptr noundef nonnull %52) #23
  %54 = add nuw i64 %.027, 1
  %55 = load i64, ptr %26, align 8, !tbaa !69
  %56 = icmp ult i64 %54, %55
  br i1 %56, label %33, label %._crit_edge, !llvm.loop !71

._crit_edge:                                      ; preds = %pmix_strncpy.exit, %22
  ret i32 0
}